
Discarded input sections

 .group         0x00000000        0xc ../build/obj/staticSrc/gpio_common_all.o
 .group         0x00000000        0xc ../build/obj/staticSrc/gpio_common_all.o
 .group         0x00000000        0xc ../build/obj/staticSrc/gpio_common_all.o
 .group         0x00000000        0xc ../build/obj/staticSrc/gpio_common_all.o
 .group         0x00000000        0xc ../build/obj/staticSrc/gpio_common_all.o
 .group         0x00000000        0xc ../build/obj/staticSrc/gpio_common_all.o
 .group         0x00000000        0xc ../build/obj/staticSrc/gpio_common_all.o
 .group         0x00000000        0xc ../build/obj/staticSrc/gpio_common_all.o
 .group         0x00000000        0xc ../build/obj/staticSrc/gpio_common_all.o
 .group         0x00000000        0xc ../build/obj/staticSrc/gpio_common_all.o
 .group         0x00000000        0xc ../build/obj/staticSrc/gpio_common_all.o
 .group         0x00000000        0xc ../build/obj/staticSrc/gpio_common_all.o
 .group         0x00000000        0xc ../build/obj/staticSrc/gpio_common_all.o
 .group         0x00000000        0xc ../build/obj/staticSrc/gpio_common_all.o
 .group         0x00000000        0xc ../build/obj/userSrc/startup.o
 .group         0x00000000        0xc ../build/obj/userSrc/startup.o
 .group         0x00000000        0xc ../build/obj/userSrc/startup.o
 .group         0x00000000        0xc ../build/obj/userSrc/startup.o
 .group         0x00000000        0xc ../build/obj/userSrc/startup.o
 .group         0x00000000        0xc ../build/obj/userSrc/startup.o
 .group         0x00000000        0xc ../build/obj/userSrc/startup.o
 .group         0x00000000        0xc ../build/obj/userSrc/startup.o
 .group         0x00000000        0xc ../build/obj/userSrc/startup.o
 .group         0x00000000        0xc ../build/obj/userSrc/startup.o
 .group         0x00000000        0xc ../build/obj/userSrc/startup.o
 .group         0x00000000        0xc ../build/obj/userSrc/startup.o
 .group         0x00000000        0xc ../build/obj/userSrc/startup.o
 .group         0x00000000        0xc ../build/obj/userSrc/startup.o
 .group         0x00000000        0xc ../build/obj/userSrc/startup.o
 .group         0x00000000        0xc ../build/obj/userSrc/startup.o
 .group         0x00000000        0xc ../build/obj/userSrc/startup.o
 .group         0x00000000        0xc ../build/obj/userSrc/startup.o
 .group         0x00000000        0xc ../build/obj/userSrc/startup.o
 .group         0x00000000        0xc ../build/obj/userSrc/startup.o
 .debug_macro   0x00000000      0xa60 ../build/obj/userSrc/startup.o
 .debug_macro   0x00000000       0x22 ../build/obj/userSrc/startup.o
 .debug_macro   0x00000000       0x8e ../build/obj/userSrc/startup.o
 .debug_macro   0x00000000       0x51 ../build/obj/userSrc/startup.o
 .debug_macro   0x00000000      0x103 ../build/obj/userSrc/startup.o
 .debug_macro   0x00000000       0x6a ../build/obj/userSrc/startup.o
 .debug_macro   0x00000000      0x1df ../build/obj/userSrc/startup.o
 .debug_macro   0x00000000       0x22 ../build/obj/userSrc/startup.o
 .debug_macro   0x00000000       0x76 ../build/obj/userSrc/startup.o
 .debug_macro   0x00000000       0x76 ../build/obj/userSrc/startup.o
 .debug_macro   0x00000000      0xe2e ../build/obj/userSrc/startup.o
 .group         0x00000000        0xc ../build/obj/userSrc/main.o
 .group         0x00000000        0xc ../build/obj/userSrc/main.o
 .group         0x00000000        0xc ../build/obj/userSrc/main.o
 .group         0x00000000        0xc ../build/obj/userSrc/main.o
 .group         0x00000000        0xc ../build/obj/userSrc/main.o
 .group         0x00000000        0xc ../build/obj/userSrc/main.o
 .group         0x00000000        0xc ../build/obj/userSrc/main.o
 .group         0x00000000        0xc ../build/obj/userSrc/main.o
 .group         0x00000000        0xc ../build/obj/userSrc/main.o
 .group         0x00000000        0xc ../build/obj/userSrc/main.o
 .group         0x00000000        0xc ../build/obj/userSrc/main.o
 .group         0x00000000        0xc ../build/obj/userSrc/main.o
 .group         0x00000000        0xc ../build/obj/userSrc/main.o
 .group         0x00000000        0xc ../build/obj/userSrc/main.o
 .group         0x00000000        0xc ../build/obj/userSrc/main.o
 .group         0x00000000        0xc ../build/obj/userSrc/main.o
 .group         0x00000000        0xc ../build/obj/userSrc/main.o
 .group         0x00000000        0xc ../build/obj/userSrc/main.o
 .group         0x00000000        0xc ../build/obj/userSrc/main.o
 .group         0x00000000        0xc ../build/obj/userSrc/main.o
 .debug_macro   0x00000000      0xa60 ../build/obj/userSrc/main.o
 .debug_macro   0x00000000       0x22 ../build/obj/userSrc/main.o
 .debug_macro   0x00000000       0x8e ../build/obj/userSrc/main.o
 .debug_macro   0x00000000       0x51 ../build/obj/userSrc/main.o
 .debug_macro   0x00000000      0x103 ../build/obj/userSrc/main.o
 .debug_macro   0x00000000       0x6a ../build/obj/userSrc/main.o
 .debug_macro   0x00000000      0x1df ../build/obj/userSrc/main.o
 .debug_macro   0x00000000       0x22 ../build/obj/userSrc/main.o
 .debug_macro   0x00000000       0x76 ../build/obj/userSrc/main.o
 .debug_macro   0x00000000      0x100 ../build/obj/userSrc/main.o
 .debug_macro   0x00000000      0x395 ../build/obj/userSrc/main.o
 .debug_macro   0x00000000      0x1ba ../build/obj/userSrc/main.o
 .debug_macro   0x00000000      0x8c6 ../build/obj/userSrc/main.o
 .debug_macro   0x00000000       0x76 ../build/obj/userSrc/main.o
 .debug_macro   0x00000000      0xe2e ../build/obj/userSrc/main.o
 .debug_macro   0x00000000       0xee ../build/obj/userSrc/main.o
 .debug_macro   0x00000000       0x82 ../build/obj/userSrc/main.o
 .debug_macro   0x00000000      0x519 ../build/obj/userSrc/main.o
 .debug_macro   0x00000000       0x94 ../build/obj/userSrc/main.o
 .debug_macro   0x00000000      0x29e ../build/obj/userSrc/main.o
 .group         0x00000000        0xc ../build/obj/userSrc/interrupt.o
 .group         0x00000000        0xc ../build/obj/userSrc/interrupt.o
 .group         0x00000000        0xc ../build/obj/userSrc/interrupt.o
 .group         0x00000000        0xc ../build/obj/userSrc/interrupt.o
 .group         0x00000000        0xc ../build/obj/userSrc/interrupt.o
 .group         0x00000000        0xc ../build/obj/userSrc/interrupt.o
 .group         0x00000000        0xc ../build/obj/userSrc/interrupt.o
 .group         0x00000000        0xc ../build/obj/userSrc/interrupt.o
 .group         0x00000000        0xc ../build/obj/userSrc/interrupt.o
 .group         0x00000000        0xc ../build/obj/userSrc/interrupt.o
 .group         0x00000000        0xc ../build/obj/userSrc/interrupt.o
 .group         0x00000000        0xc ../build/obj/userSrc/interrupt.o
 .group         0x00000000        0xc ../build/obj/userSrc/interrupt.o
 .group         0x00000000        0xc ../build/obj/userSrc/interrupt.o
 .group         0x00000000        0xc ../build/obj/userSrc/interrupt.o
 .group         0x00000000        0xc ../build/obj/userSrc/interrupt.o
 .group         0x00000000        0xc ../build/obj/userSrc/interrupt.o
 .group         0x00000000        0xc ../build/obj/userSrc/interrupt.o
 .group         0x00000000        0xc ../build/obj/userSrc/interrupt.o
 .group         0x00000000        0xc ../build/obj/userSrc/interrupt.o
 .debug_macro   0x00000000      0xa60 ../build/obj/userSrc/interrupt.o
 .debug_macro   0x00000000       0x22 ../build/obj/userSrc/interrupt.o
 .debug_macro   0x00000000       0x8e ../build/obj/userSrc/interrupt.o
 .debug_macro   0x00000000       0x51 ../build/obj/userSrc/interrupt.o
 .debug_macro   0x00000000      0x103 ../build/obj/userSrc/interrupt.o
 .debug_macro   0x00000000       0x6a ../build/obj/userSrc/interrupt.o
 .debug_macro   0x00000000      0x1df ../build/obj/userSrc/interrupt.o
 .debug_macro   0x00000000       0x22 ../build/obj/userSrc/interrupt.o
 .debug_macro   0x00000000       0x76 ../build/obj/userSrc/interrupt.o
 .debug_macro   0x00000000      0x100 ../build/obj/userSrc/interrupt.o
 .debug_macro   0x00000000      0x395 ../build/obj/userSrc/interrupt.o
 .debug_macro   0x00000000      0x1ba ../build/obj/userSrc/interrupt.o
 .debug_macro   0x00000000      0x8c6 ../build/obj/userSrc/interrupt.o
 .debug_macro   0x00000000       0x76 ../build/obj/userSrc/interrupt.o
 .debug_macro   0x00000000      0xe2e ../build/obj/userSrc/interrupt.o
 .debug_macro   0x00000000       0xee ../build/obj/userSrc/interrupt.o
 .debug_macro   0x00000000       0x82 ../build/obj/userSrc/interrupt.o
 .debug_macro   0x00000000      0x519 ../build/obj/userSrc/interrupt.o
 .debug_macro   0x00000000       0x94 ../build/obj/userSrc/interrupt.o
 .debug_macro   0x00000000      0x29e ../build/obj/userSrc/interrupt.o

Memory Configuration

Name             Origin             Length             Attributes
VECTAB           0x08006000         0x00000110         xr
FLASH            0x08006110         0x00001eef         xr
SRAM             0x20000000         0x00002800         xrw
*default*        0x00000000         0xffffffff

Linker script and memory map

LOAD ../build/obj/staticSrc/gpio_common_all.o
LOAD ../build/obj/userSrc/startup.o
LOAD ../build/obj/userSrc/main.o
LOAD ../build/obj/userSrc/interrupt.o

.intvec         0x08006000      0x10c
                0x08006000                _intvec_start_ = .
 *(.intvec)
 .intvec        0x08006000      0x10c ../build/obj/userSrc/interrupt.o
                0x08006000                vectorTable
                0x0800610c                . = ALIGN (0x4)
                0x0800610c                _intvec_end_ = .

.text           0x08006110      0x21c
                0x08006110                _stext = .
 *(.text)
 .text          0x08006110      0x11c ../build/obj/staticSrc/gpio_common_all.o
                0x08006110                gpio_set
                0x08006130                gpio_clear
                0x08006150                gpio_get
                0x08006174                gpio_toggle
                0x080061aa                gpio_port_read
                0x080061c4                gpio_port_write
                0x080061e4                gpio_port_config_lock
 .text          0x0800622c       0x78 ../build/obj/userSrc/startup.o
                0x0800622c                Reset_Handler
                0x0800623c                initDataNbss
 .text          0x080062a4       0x4c ../build/obj/userSrc/main.o
                0x080062a4                delay
                0x080062d0                main
 .text          0x080062f0       0x3c ../build/obj/userSrc/interrupt.o
                0x080062f0                RTC_Alarm_IRQHandler
                0x080062f0                EXTI2_IRQHandler
                0x080062f0                I2C1_ER_IRQHandler
                0x080062f0                TIM1_CC_IRQHandler
                0x080062f0                USART1_IRQHandler
                0x080062f0                FLASH_IRQHandler
                0x080062f0                PVD_IRQHandler
                0x080062f0                CAN1_SCE_IRQHandler
                0x080062f0                DMA1_Channel2_IRQHandler
                0x080062f0                EXTI3_IRQHandler
                0x080062f0                EXTI0_IRQHandler
                0x080062f0                USART2_IRQHandler
                0x080062f0                ADC1_2_IRQHandler
                0x080062f0                SPI1_IRQHandler
                0x080062f0                TAMPER_IRQHandler
                0x080062f0                DMA1_Channel4_IRQHandler
                0x080062f0                DefaultHandler
                0x080062f0                RTC_IRQHandler
                0x080062f0                DMA1_Channel7_IRQHandler
                0x080062f0                CAN1_RX1_IRQHandler
                0x080062f0                I2C1_EV_IRQHandler
                0x080062f0                DMA1_Channel6_IRQHandler
                0x080062f0                TIM3_IRQHandler
                0x080062f0                RCC_IRQHandler
                0x080062f0                TIM1_TRG_COM_IRQHandler
                0x080062f0                DMA1_Channel1_IRQHandler
                0x080062f0                EXTI15_10_IRQHandler
                0x080062f0                EXTI9_5_IRQHandler
                0x080062f0                EXTI1_IRQHandler
                0x080062f0                TIM1_BRK_IRQHandler
                0x080062f0                DMA1_Channel5_IRQHandler
                0x080062f0                EXTI4_IRQHandler
                0x080062f0                USB_LP_CAN1_RX0_IRQHandler
                0x080062f0                USB_HP_CAN1_TX_IRQHandler
                0x080062f0                DMA1_Channel3_IRQHandler
                0x080062f0                TIM1_UP_IRQHandler
                0x080062f0                WWDG_IRQHandler
                0x080062f0                TIM2_IRQHandler
                0x080062f0                USBWakeUp_IRQHandler
                0x080062f6                NMI_Handler
                0x080062fc                HardFault_Handler
                0x08006302                MemManage_Handler
                0x08006308                BusFault_Handler
                0x0800630e                UsageFault_Handler
                0x08006314                SVC_Handler
                0x0800631a                DebugMon_Handler
                0x08006320                PendSV_Handler
                0x08006326                SysTick_Handler
 *(.text*)
 *(.rodata)
 *(.rodata*)
 *(.glue_7)
 .glue_7        0x0800632c        0x0 linker stubs
 *(.glue_7t)
 .glue_7t       0x0800632c        0x0 linker stubs
 *(.eh_frame)
 *(.init)
 *(.fini)
                0x0800632c                . = ALIGN (0x4)
                0x0800632c                _etext = .

.vfp11_veneer   0x0800632c        0x0
 .vfp11_veneer  0x0800632c        0x0 linker stubs

.v4_bx          0x0800632c        0x0
 .v4_bx         0x0800632c        0x0 linker stubs

.iplt           0x0800632c        0x0
 .iplt          0x0800632c        0x0 ../build/obj/staticSrc/gpio_common_all.o

.rel.dyn        0x0800632c        0x0
 .rel.iplt      0x0800632c        0x0 ../build/obj/staticSrc/gpio_common_all.o

.data           0x20000000        0x0 load address 0x0800632c
                0x20000000                _sdata_ram = .
 *(.data)
 .data          0x20000000        0x0 ../build/obj/staticSrc/gpio_common_all.o
 .data          0x20000000        0x0 ../build/obj/userSrc/startup.o
 .data          0x20000000        0x0 ../build/obj/userSrc/main.o
 .data          0x20000000        0x0 ../build/obj/userSrc/interrupt.o
                0x20000000                . = ALIGN (0x4)
                0x20000000                _edata_ram = .

.igot.plt       0x20000000        0x0 load address 0x0800632c
 .igot.plt      0x20000000        0x0 ../build/obj/staticSrc/gpio_common_all.o

.bss            0x20000000        0x8 load address 0x0800632c
                0x20000000                _bss_start_ = .
 *(.bss)
 .bss           0x20000000        0x0 ../build/obj/staticSrc/gpio_common_all.o
 .bss           0x20000000        0x0 ../build/obj/userSrc/startup.o
 .bss           0x20000000        0x8 ../build/obj/userSrc/main.o
                0x20000000                dlyCnt
                0x20000004                counter
 .bss           0x20000008        0x0 ../build/obj/userSrc/interrupt.o
 *(.bss*)
 *(.common)
 *(.common*)
                0x20000008                . = ALIGN (0x4)
                0x20000008                _bss_end_ = .
OUTPUT(../build/bin/STM32F103C6_APP.elf elf32-littlearm)
LOAD linker stubs

.debug_info     0x00000000      0x686
 .debug_info    0x00000000      0x226 ../build/obj/staticSrc/gpio_common_all.o
 .debug_info    0x00000226      0x145 ../build/obj/userSrc/startup.o
 .debug_info    0x0000036b      0x152 ../build/obj/userSrc/main.o
 .debug_info    0x000004bd      0x1c9 ../build/obj/userSrc/interrupt.o

.debug_abbrev   0x00000000      0x2bf
 .debug_abbrev  0x00000000       0xd0 ../build/obj/staticSrc/gpio_common_all.o
 .debug_abbrev  0x000000d0       0x9b ../build/obj/userSrc/startup.o
 .debug_abbrev  0x0000016b       0xbb ../build/obj/userSrc/main.o
 .debug_abbrev  0x00000226       0x99 ../build/obj/userSrc/interrupt.o

.debug_aranges  0x00000000       0x80
 .debug_aranges
                0x00000000       0x20 ../build/obj/staticSrc/gpio_common_all.o
 .debug_aranges
                0x00000020       0x20 ../build/obj/userSrc/startup.o
 .debug_aranges
                0x00000040       0x20 ../build/obj/userSrc/main.o
 .debug_aranges
                0x00000060       0x20 ../build/obj/userSrc/interrupt.o

.debug_macro    0x00000000     0x3db2
 .debug_macro   0x00000000       0xb8 ../build/obj/staticSrc/gpio_common_all.o
 .debug_macro   0x000000b8      0xa60 ../build/obj/staticSrc/gpio_common_all.o
 .debug_macro   0x00000b18       0x1c ../build/obj/staticSrc/gpio_common_all.o
 .debug_macro   0x00000b34       0x22 ../build/obj/staticSrc/gpio_common_all.o
 .debug_macro   0x00000b56       0x8e ../build/obj/staticSrc/gpio_common_all.o
 .debug_macro   0x00000be4       0x51 ../build/obj/staticSrc/gpio_common_all.o
 .debug_macro   0x00000c35      0x103 ../build/obj/staticSrc/gpio_common_all.o
 .debug_macro   0x00000d38       0x6a ../build/obj/staticSrc/gpio_common_all.o
 .debug_macro   0x00000da2      0x1df ../build/obj/staticSrc/gpio_common_all.o
 .debug_macro   0x00000f81       0x22 ../build/obj/staticSrc/gpio_common_all.o
 .debug_macro   0x00000fa3       0xe8 ../build/obj/staticSrc/gpio_common_all.o
 .debug_macro   0x0000108b       0x76 ../build/obj/staticSrc/gpio_common_all.o
 .debug_macro   0x00001101      0x1b4 ../build/obj/staticSrc/gpio_common_all.o
 .debug_macro   0x000012b5       0x76 ../build/obj/staticSrc/gpio_common_all.o
 .debug_macro   0x0000132b      0xe2e ../build/obj/staticSrc/gpio_common_all.o
 .debug_macro   0x00002159      0x12f ../build/obj/userSrc/startup.o
 .debug_macro   0x00002288      0x100 ../build/obj/userSrc/startup.o
 .debug_macro   0x00002388      0x395 ../build/obj/userSrc/startup.o
 .debug_macro   0x0000271d      0x1ba ../build/obj/userSrc/startup.o
 .debug_macro   0x000028d7      0x8c6 ../build/obj/userSrc/startup.o
 .debug_macro   0x0000319d       0xee ../build/obj/userSrc/startup.o
 .debug_macro   0x0000328b       0x82 ../build/obj/userSrc/startup.o
 .debug_macro   0x0000330d      0x519 ../build/obj/userSrc/startup.o
 .debug_macro   0x00003826       0x94 ../build/obj/userSrc/startup.o
 .debug_macro   0x000038ba      0x29e ../build/obj/userSrc/startup.o
 .debug_macro   0x00003b58      0x12b ../build/obj/userSrc/main.o
 .debug_macro   0x00003c83      0x12f ../build/obj/userSrc/interrupt.o

.debug_line     0x00000000     0x1077
 .debug_line    0x00000000      0x3af ../build/obj/staticSrc/gpio_common_all.o
 .debug_line    0x000003af      0x43c ../build/obj/userSrc/startup.o
 .debug_line    0x000007eb      0x41f ../build/obj/userSrc/main.o
 .debug_line    0x00000c0a      0x46d ../build/obj/userSrc/interrupt.o

.debug_str      0x00000000     0xecf0
 .debug_str     0x00000000     0x8412 ../build/obj/staticSrc/gpio_common_all.o
                               0x8584 (size before relaxing)
 .debug_str     0x00008412     0x66fc ../build/obj/userSrc/startup.o
                               0xebaa (size before relaxing)
 .debug_str     0x0000eb0e      0x11a ../build/obj/userSrc/main.o
                               0xec28 (size before relaxing)
 .debug_str     0x0000ec28       0xc8 ../build/obj/userSrc/interrupt.o
                               0xecbe (size before relaxing)

.comment        0x00000000       0x49
 .comment       0x00000000       0x49 ../build/obj/staticSrc/gpio_common_all.o
                                 0x4a (size before relaxing)
 .comment       0x00000049       0x4a ../build/obj/userSrc/startup.o
 .comment       0x00000049       0x4a ../build/obj/userSrc/main.o
 .comment       0x00000049       0x4a ../build/obj/userSrc/interrupt.o

.ARM.attributes
                0x00000000       0x2d
 .ARM.attributes
                0x00000000       0x2d ../build/obj/staticSrc/gpio_common_all.o
 .ARM.attributes
                0x0000002d       0x2d ../build/obj/userSrc/startup.o
 .ARM.attributes
                0x0000005a       0x2d ../build/obj/userSrc/main.o
 .ARM.attributes
                0x00000087       0x2d ../build/obj/userSrc/interrupt.o

.debug_frame    0x00000000      0x2cc
 .debug_frame   0x00000000      0x124 ../build/obj/staticSrc/gpio_common_all.o
 .debug_frame   0x00000124       0x54 ../build/obj/userSrc/startup.o
 .debug_frame   0x00000178       0x54 ../build/obj/userSrc/main.o
 .debug_frame   0x000001cc      0x100 ../build/obj/userSrc/interrupt.o
